target datalayout = "e-m:e-p270:32:32-p271:32:32-p272:64:64-i64:64-i128:128-f80:128-n8:16:32:64-S128"
target triple = "x86_64-pc-linux-gnu"

%struct._zval_struct = type { %union._zend_value, %union.anon, %union.anon.2 }
%union._zend_value = type { i64 }
%union.anon = type { i32 }
%union.anon.2 = type { i32 }
%struct._zend_refcounted_h = type { i32, %union.anon.3 }
%union.anon.3 = type { i32 }
%struct._zend_execute_data = type { ptr, ptr, ptr, ptr, %struct._zval_struct, ptr, ptr, ptr, ptr }
%struct._zend_object = type { %struct._zend_refcounted_h, i32, i32, ptr, ptr, ptr, [1 x %struct._zval_struct] }
%struct.anon.0 = type { i8, i8, %union.anon.1 }
%union.anon.1 = type { i16 }

; Function Attrs: alwaysinline nounwind uwtable
define internal zeroext i1 @instanceof_function(ptr noundef %0, ptr noundef %1) #4 {
  %3 = alloca ptr, align 8
  %4 = alloca ptr, align 8
  store ptr %0, ptr %3, align 8, !tbaa !48
  store ptr %1, ptr %4, align 8, !tbaa !48
  %5 = load ptr, ptr %3, align 8, !tbaa !48
  %6 = load ptr, ptr %4, align 8, !tbaa !48
  %7 = icmp eq ptr %5, %6
  br i1 %7, label %12, label %8

8:                                                ; preds = %2
  %9 = load ptr, ptr %3, align 8, !tbaa !48
  %10 = load ptr, ptr %4, align 8, !tbaa !48
  %11 = call zeroext i1 @instanceof_function_slow(ptr noundef %9, ptr noundef %10)
  br label %12

12:                                               ; preds = %8, %2
  %13 = phi i1 [ true, %2 ], [ %11, %8 ]
  ret i1 %13
}

; Function Attrs: alwaysinline nounwind uwtable
define internal zeroext i8 @zval_get_type(ptr noundef %0) #4 {
  %2 = alloca ptr, align 8
  store ptr %0, ptr %2, align 8, !tbaa !9
  %3 = load ptr, ptr %2, align 8, !tbaa !9
  %4 = getelementptr inbounds nuw %struct._zval_struct, ptr %3, i32 0, i32 1
  %5 = getelementptr inbounds nuw %struct.anon.0, ptr %4, i32 0, i32 0
  %6 = load i8, ptr %5, align 8, !tbaa !13
  ret i8 %6
}

; Function Attrs: alwaysinline nounwind uwtable
define internal zeroext i1 @zend_parse_arg_obj(ptr noundef %0, ptr noundef %1, ptr noundef %2, i1 noundef zeroext %3) #4 {
  %5 = alloca i1, align 1
  %6 = alloca ptr, align 8
  %7 = alloca ptr, align 8
  %8 = alloca ptr, align 8
  %9 = alloca i8, align 1
  store ptr %0, ptr %6, align 8, !tbaa !9
  store ptr %1, ptr %7, align 8, !tbaa !121
  store ptr %2, ptr %8, align 8, !tbaa !48
  %10 = zext i1 %3 to i8
  store i8 %10, ptr %9, align 1, !tbaa !11
  %11 = load ptr, ptr %6, align 8, !tbaa !9
  %12 = call zeroext i8 @zval_get_type(ptr noundef %11)
  %13 = zext i8 %12 to i32
  %14 = icmp eq i32 %13, 8
  %15 = xor i1 %14, true
  %16 = xor i1 %15, true
  %17 = zext i1 %16 to i32
  %18 = sext i32 %17 to i64
  %19 = call i64 @llvm.expect.i64(i64 %18, i64 1)
  %20 = icmp ne i64 %19, 0
  br i1 %20, label %21, label %45

21:                                               ; preds = %4
  %22 = load ptr, ptr %8, align 8, !tbaa !48
  %23 = icmp ne ptr %22, null
  br i1 %23, label %24, label %40

24:                                               ; preds = %21
  %25 = load ptr, ptr %6, align 8, !tbaa !9
  %26 = getelementptr inbounds nuw %struct._zval_struct, ptr %25, i32 0, i32 0
  %27 = load ptr, ptr %26, align 8, !tbaa !13
  %28 = getelementptr inbounds nuw %struct._zend_object, ptr %27, i32 0, i32 3
  %29 = load ptr, ptr %28, align 8, !tbaa !49
  %30 = load ptr, ptr %8, align 8, !tbaa !48
  %31 = call zeroext i1 @instanceof_function(ptr noundef %29, ptr noundef %30)
  %32 = zext i1 %31 to i32
  %33 = icmp ne i32 %32, 0
  %34 = xor i1 %33, true
  %35 = xor i1 %34, true
  %36 = zext i1 %35 to i32
  %37 = sext i32 %36 to i64
  %38 = call i64 @llvm.expect.i64(i64 %37, i64 1)
  %39 = icmp ne i64 %38, 0
  br i1 %39, label %40, label %45

40:                                               ; preds = %24, %21
  %41 = load ptr, ptr %6, align 8, !tbaa !9
  %42 = getelementptr inbounds nuw %struct._zval_struct, ptr %41, i32 0, i32 0
  %43 = load ptr, ptr %42, align 8, !tbaa !13
  %44 = load ptr, ptr %7, align 8, !tbaa !121
  store ptr %43, ptr %44, align 8, !tbaa !120
  br label %63

45:                                               ; preds = %24, %4
  %46 = load i8, ptr %9, align 1, !tbaa !11, !range !46, !noundef !47
  %47 = trunc i8 %46 to i1
  br i1 %47, label %48, label %61

48:                                               ; preds = %45
  %49 = load ptr, ptr %6, align 8, !tbaa !9
  %50 = call zeroext i8 @zval_get_type(ptr noundef %49)
  %51 = zext i8 %50 to i32
  %52 = icmp eq i32 %51, 1
  %53 = xor i1 %52, true
  %54 = xor i1 %53, true
  %55 = zext i1 %54 to i32
  %56 = sext i32 %55 to i64
  %57 = call i64 @llvm.expect.i64(i64 %56, i64 1)
  %58 = icmp ne i64 %57, 0
  br i1 %58, label %59, label %61

59:                                               ; preds = %48
  %60 = load ptr, ptr %7, align 8, !tbaa !121
  store ptr null, ptr %60, align 8, !tbaa !120
  br label %62

61:                                               ; preds = %48, %45
  store i1 false, ptr %5, align 1
  br label %64

62:                                               ; preds = %59
  br label %63

63:                                               ; preds = %62, %40
  store i1 true, ptr %5, align 1
  br label %64

64:                                               ; preds = %63, %61
  %65 = load i1, ptr %5, align 1
  ret i1 %65
}

; Function Attrs: nounwind uwtable
define hidden void @zif_spl_object_id(ptr noundef %0, ptr noundef %1) #0 {
  %3 = alloca ptr, align 8
  %4 = alloca ptr, align 8
  %5 = alloca ptr, align 8
  %6 = alloca i32, align 4
  %7 = alloca i32, align 4
  %8 = alloca i32, align 4
  %9 = alloca i32, align 4
  %10 = alloca i32, align 4
  %11 = alloca ptr, align 8
  %12 = alloca ptr, align 8
  %13 = alloca i32, align 4
  %14 = alloca ptr, align 8
  %15 = alloca i8, align 1
  %16 = alloca i8, align 1
  %17 = alloca i32, align 4
  %18 = alloca i32, align 4
  %19 = alloca ptr, align 8
  store ptr %0, ptr %3, align 8, !tbaa !4
  store ptr %1, ptr %4, align 8, !tbaa !9
  call void @llvm.lifetime.start.p0(i64 8, ptr %5) #12
  br label %20

20:                                               ; preds = %2
  call void @llvm.lifetime.start.p0(i64 4, ptr %6) #12
  store i32 0, ptr %6, align 4, !tbaa !56
  call void @llvm.lifetime.start.p0(i64 4, ptr %7) #12
  store i32 1, ptr %7, align 4, !tbaa !56
  call void @llvm.lifetime.start.p0(i64 4, ptr %8) #12
  store i32 1, ptr %8, align 4, !tbaa !56
  call void @llvm.lifetime.start.p0(i64 4, ptr %9) #12
  %21 = load ptr, ptr %3, align 8, !tbaa !4
  %22 = getelementptr inbounds nuw %struct._zend_execute_data, ptr %21, i32 0, i32 4
  %23 = getelementptr inbounds nuw %struct._zval_struct, ptr %22, i32 0, i32 2
  %24 = load i32, ptr %23, align 4, !tbaa !13
  store i32 %24, ptr %9, align 4, !tbaa !56
  call void @llvm.lifetime.start.p0(i64 4, ptr %10) #12
  store i32 0, ptr %10, align 4, !tbaa !56
  call void @llvm.lifetime.start.p0(i64 8, ptr %11) #12
  call void @llvm.lifetime.start.p0(i64 8, ptr %12) #12
  store ptr null, ptr %12, align 8, !tbaa !9
  call void @llvm.lifetime.start.p0(i64 4, ptr %13) #12
  store i32 0, ptr %13, align 4, !tbaa !56
  call void @llvm.lifetime.start.p0(i64 8, ptr %14) #12
  store ptr null, ptr %14, align 8, !tbaa !55
  call void @llvm.lifetime.start.p0(i64 1, ptr %15) #12
  store i8 0, ptr %15, align 1, !tbaa !11
  call void @llvm.lifetime.start.p0(i64 1, ptr %16) #12
  store i8 0, ptr %16, align 1, !tbaa !11
  call void @llvm.lifetime.start.p0(i64 4, ptr %17) #12
  store i32 0, ptr %17, align 4, !tbaa !56
  br label %25

25:                                               ; preds = %20
  %26 = load i32, ptr %9, align 4, !tbaa !56
  %27 = load i32, ptr %7, align 4, !tbaa !56
  %28 = icmp ult i32 %26, %27
  %29 = xor i1 %28, true
  %30 = xor i1 %29, true
  %31 = zext i1 %30 to i32
  %32 = sext i32 %31 to i64
  %33 = call i64 @llvm.expect.i64(i64 %32, i64 0)
  %34 = icmp ne i64 %33, 0
  br i1 %34, label %45, label %35

35:                                               ; preds = %25
  %36 = load i32, ptr %9, align 4, !tbaa !56
  %37 = load i32, ptr %8, align 4, !tbaa !56
  %38 = icmp ugt i32 %36, %37
  %39 = xor i1 %38, true
  %40 = xor i1 %39, true
  %41 = zext i1 %40 to i32
  %42 = sext i32 %41 to i64
  %43 = call i64 @llvm.expect.i64(i64 %42, i64 0)
  %44 = icmp ne i64 %43, 0
  br i1 %44, label %45, label %48

45:                                               ; preds = %35, %25
  %46 = load i32, ptr %7, align 4, !tbaa !56
  %47 = load i32, ptr %8, align 4, !tbaa !56
  call void @zend_wrong_parameters_count_error(i32 noundef %46, i32 noundef %47)
  store i32 1, ptr %17, align 4, !tbaa !56
  br label %111

48:                                               ; preds = %35
  %49 = load ptr, ptr %3, align 8, !tbaa !4
  %50 = getelementptr inbounds %struct._zval_struct, ptr %49, i64 4
  store ptr %50, ptr %11, align 8, !tbaa !9
  %51 = load i32, ptr %10, align 4, !tbaa !56
  %52 = add i32 %51, 1
  store i32 %52, ptr %10, align 4, !tbaa !56
  %53 = load i32, ptr %10, align 4, !tbaa !56
  %54 = load i32, ptr %7, align 4, !tbaa !56
  %55 = icmp ule i32 %53, %54
  br i1 %55, label %61, label %56

56:                                               ; preds = %48
  %57 = load i8, ptr %16, align 1, !tbaa !11, !range !46, !noundef !47
  %58 = trunc i8 %57 to i1
  %59 = zext i1 %58 to i32
  %60 = icmp eq i32 %59, 1
  br label %61

61:                                               ; preds = %56, %48
  %62 = phi i1 [ true, %48 ], [ %60, %56 ]
  call void @llvm.assume(i1 %62)
  %63 = load i32, ptr %10, align 4, !tbaa !56
  %64 = load i32, ptr %7, align 4, !tbaa !56
  %65 = icmp ugt i32 %63, %64
  br i1 %65, label %71, label %66

66:                                               ; preds = %61
  %67 = load i8, ptr %16, align 1, !tbaa !11, !range !46, !noundef !47
  %68 = trunc i8 %67 to i1
  %69 = zext i1 %68 to i32
  %70 = icmp eq i32 %69, 0
  br label %71

71:                                               ; preds = %66, %61
  %72 = phi i1 [ true, %61 ], [ %70, %66 ]
  call void @llvm.assume(i1 %72)
  %73 = load i8, ptr %16, align 1, !tbaa !11, !range !46, !noundef !47
  %74 = trunc i8 %73 to i1
  br i1 %74, label %75, label %87

75:                                               ; preds = %71
  %76 = load i32, ptr %10, align 4, !tbaa !56
  %77 = load i32, ptr %9, align 4, !tbaa !56
  %78 = icmp ugt i32 %76, %77
  %79 = xor i1 %78, true
  %80 = xor i1 %79, true
  %81 = zext i1 %80 to i32
  %82 = sext i32 %81 to i64
  %83 = call i64 @llvm.expect.i64(i64 %82, i64 0)
  %84 = icmp ne i64 %83, 0
  br i1 %84, label %85, label %86

85:                                               ; preds = %75
  br label %111

86:                                               ; preds = %75
  br label %87

87:                                               ; preds = %86, %71
  %88 = load ptr, ptr %11, align 8, !tbaa !9
  %89 = getelementptr inbounds nuw %struct._zval_struct, ptr %88, i32 1
  store ptr %89, ptr %11, align 8, !tbaa !9
  %90 = load ptr, ptr %11, align 8, !tbaa !9
  store ptr %90, ptr %12, align 8, !tbaa !9
  %91 = load ptr, ptr %12, align 8, !tbaa !9
  %92 = call zeroext i1 @zend_parse_arg_obj(ptr noundef %91, ptr noundef %5, ptr noundef null, i1 noundef zeroext false)
  %93 = xor i1 %92, true
  %94 = xor i1 %93, true
  %95 = xor i1 %94, true
  %96 = zext i1 %95 to i32
  %97 = sext i32 %96 to i64
  %98 = call i64 @llvm.expect.i64(i64 %97, i64 0)
  %99 = icmp ne i64 %98, 0
  br i1 %99, label %100, label %101

100:                                              ; preds = %87
  store i32 18, ptr %13, align 4, !tbaa !56
  store i32 9, ptr %17, align 4, !tbaa !56
  br label %111

101:                                              ; preds = %87
  %102 = load i32, ptr %10, align 4, !tbaa !56
  %103 = load i32, ptr %8, align 4, !tbaa !56
  %104 = icmp eq i32 %102, %103
  br i1 %104, label %108, label %105

105:                                              ; preds = %101
  %106 = load i32, ptr %8, align 4, !tbaa !56
  %107 = icmp eq i32 %106, -1
  br label %108

108:                                              ; preds = %105, %101
  %109 = phi i1 [ true, %101 ], [ %107, %105 ]
  call void @llvm.assume(i1 %109)
  br label %110

110:                                              ; preds = %108
  br label %111

111:                                              ; preds = %110, %100, %85, %45
  %112 = load i32, ptr %17, align 4, !tbaa !56
  %113 = icmp ne i32 %112, 0
  %114 = xor i1 %113, true
  %115 = xor i1 %114, true
  %116 = zext i1 %115 to i32
  %117 = sext i32 %116 to i64
  %118 = call i64 @llvm.expect.i64(i64 %117, i64 0)
  %119 = icmp ne i64 %118, 0
  br i1 %119, label %120, label %126

120:                                              ; preds = %111
  %121 = load i32, ptr %17, align 4, !tbaa !56
  %122 = load i32, ptr %10, align 4, !tbaa !56
  %123 = load ptr, ptr %14, align 8, !tbaa !55
  %124 = load i32, ptr %13, align 4, !tbaa !56
  %125 = load ptr, ptr %12, align 8, !tbaa !9
  call void @zend_wrong_parameter_error(i32 noundef %121, i32 noundef %122, ptr noundef %123, i32 noundef %124, ptr noundef %125)
  store i32 1, ptr %18, align 4
  br label %127

126:                                              ; preds = %111
  store i32 0, ptr %18, align 4
  br label %127

127:                                              ; preds = %126, %120
  call void @llvm.lifetime.end.p0(i64 4, ptr %17) #12
  call void @llvm.lifetime.end.p0(i64 1, ptr %16) #12
  call void @llvm.lifetime.end.p0(i64 1, ptr %15) #12
  call void @llvm.lifetime.end.p0(i64 8, ptr %14) #12
  call void @llvm.lifetime.end.p0(i64 4, ptr %13) #12
  call void @llvm.lifetime.end.p0(i64 8, ptr %12) #12
  call void @llvm.lifetime.end.p0(i64 8, ptr %11) #12
  call void @llvm.lifetime.end.p0(i64 4, ptr %10) #12
  call void @llvm.lifetime.end.p0(i64 4, ptr %9) #12
  call void @llvm.lifetime.end.p0(i64 4, ptr %8) #12
  call void @llvm.lifetime.end.p0(i64 4, ptr %7) #12
  call void @llvm.lifetime.end.p0(i64 4, ptr %6) #12
  %128 = load i32, ptr %18, align 4
  switch i32 %128, label %147 [
    i32 0, label %129
  ]

129:                                              ; preds = %127
  br label %130

130:                                              ; preds = %129
  br label %131

131:                                              ; preds = %130
  br label %132

132:                                              ; preds = %131
  br label %133

133:                                              ; preds = %132
  call void @llvm.lifetime.start.p0(i64 8, ptr %19) #12
  %134 = load ptr, ptr %4, align 8, !tbaa !9
  store ptr %134, ptr %19, align 8, !tbaa !9
  %135 = load ptr, ptr %5, align 8, !tbaa !120
  %136 = getelementptr inbounds nuw %struct._zend_object, ptr %135, i32 0, i32 1
  %137 = load i32, ptr %136, align 8, !tbaa !122
  %138 = zext i32 %137 to i64
  %139 = load ptr, ptr %19, align 8, !tbaa !9
  %140 = getelementptr inbounds nuw %struct._zval_struct, ptr %139, i32 0, i32 0
  store i64 %138, ptr %140, align 8, !tbaa !13
  %141 = load ptr, ptr %19, align 8, !tbaa !9
  %142 = getelementptr inbounds nuw %struct._zval_struct, ptr %141, i32 0, i32 1
  store i32 4, ptr %142, align 8, !tbaa !13
  call void @llvm.lifetime.end.p0(i64 8, ptr %19) #12
  br label %143

143:                                              ; preds = %133
  br label %144

144:                                              ; preds = %143
  store i32 1, ptr %18, align 4
  br label %147

145:                                              ; No predecessors!
  br label %146

146:                                              ; preds = %145
  store i32 0, ptr %18, align 4
  br label %147

147:                                              ; preds = %146, %144, %127
  call void @llvm.lifetime.end.p0(i64 8, ptr %5) #12
  %148 = load i32, ptr %18, align 4
  switch i32 %148, label %150 [
    i32 0, label %149
    i32 1, label %149
  ]

149:                                              ; preds = %147, %147
  ret void

150:                                              ; preds = %147
  unreachable
}